target datalayout = "e-m:e-p270:32:32-p271:32:32-p272:64:64-i64:64-i128:128-f80:128-n8:16:32:64-S128"
target triple = "x86_64-pc-linux-gnu"

%struct.pmix_object_t = type { %union.pthread_mutex_t, ptr, i32, %struct.pmix_tma }
%union.pthread_mutex_t = type { %struct.__pthread_mutex_s }
%struct.__pthread_mutex_s = type { i32, i32, i32, i32, i32, i16, i16, %struct.__pthread_internal_list }
%struct.__pthread_internal_list = type { ptr, ptr }
%struct.pmix_tma = type { ptr, ptr, ptr, ptr, ptr, ptr, ptr, ptr }
%struct.pmix_list_t = type { %struct.pmix_object_t, %struct.pmix_list_item_t, i64 }
%struct.pmix_list_item_t = type { %struct.pmix_object_t, ptr, ptr, i32 }
%struct.pmix_class_t = type { ptr, ptr, ptr, ptr, i32, i32, ptr, ptr, i64 }
%struct.tuple_list_item_t = type { %struct.pmix_list_item_t, ptr, ptr, %struct.pmix_list_t, i64, i32, i8 }

@.str.10 = private unnamed_addr constant [21 x i8] c"pthread_mutex_lock()\00", align 1

; Function Attrs: inlinehint nounwind uwtable
define internal void @pmix_tma_free(ptr noundef %0, ptr noundef %1) #4 {
  %3 = alloca ptr, align 8
  %4 = alloca ptr, align 8
  store ptr %0, ptr %3, align 8, !tbaa !62
  store ptr %1, ptr %4, align 8, !tbaa !12
  %5 = load ptr, ptr %3, align 8, !tbaa !62
  %6 = icmp ne ptr null, %5
  br i1 %6, label %7, label %13

7:                                                ; preds = %2
  %8 = load ptr, ptr %3, align 8, !tbaa !62
  %9 = getelementptr inbounds nuw %struct.pmix_tma, ptr %8, i32 0, i32 5
  %10 = load ptr, ptr %9, align 8, !tbaa !85
  %11 = load ptr, ptr %3, align 8, !tbaa !62
  %12 = load ptr, ptr %4, align 8, !tbaa !12
  call void %10(ptr noundef %11, ptr noundef %12)
  br label %15

13:                                               ; preds = %2
  %14 = load ptr, ptr %4, align 8, !tbaa !12
  call void @free(ptr noundef %14) #13
  br label %15

15:                                               ; preds = %13, %7
  ret void
}

; Function Attrs: inlinehint nounwind uwtable
define internal void @pmix_obj_run_destructors(ptr noundef %0) #4 {
  %2 = alloca ptr, align 8
  %3 = alloca ptr, align 8
  store ptr %0, ptr %2, align 8, !tbaa !60
  call void @llvm.lifetime.start.p0(i64 8, ptr %3) #13
  %4 = load ptr, ptr %2, align 8, !tbaa !60
  %5 = getelementptr inbounds nuw %struct.pmix_object_t, ptr %4, i32 0, i32 1
  %6 = load ptr, ptr %5, align 8, !tbaa !54
  %7 = getelementptr inbounds nuw %struct.pmix_class_t, ptr %6, i32 0, i32 7
  %8 = load ptr, ptr %7, align 8, !tbaa !83
  store ptr %8, ptr %3, align 8, !tbaa !12
  br label %9

9:                                                ; preds = %13, %1
  %10 = load ptr, ptr %3, align 8, !tbaa !12
  %11 = load ptr, ptr %10, align 8, !tbaa !12
  %12 = icmp ne ptr null, %11
  br i1 %12, label %13, label %19

13:                                               ; preds = %9
  %14 = load ptr, ptr %3, align 8, !tbaa !12
  %15 = load ptr, ptr %14, align 8, !tbaa !12
  %16 = load ptr, ptr %2, align 8, !tbaa !60
  call void %15(ptr noundef %16)
  %17 = load ptr, ptr %3, align 8, !tbaa !12
  %18 = getelementptr inbounds nuw ptr, ptr %17, i32 1
  store ptr %18, ptr %3, align 8, !tbaa !12
  br label %9, !llvm.loop !84

19:                                               ; preds = %9
  call void @llvm.lifetime.end.p0(i64 8, ptr %3) #13
  ret void
}

; Function Attrs: alwaysinline nounwind uwtable
define internal i32 @pmix_obj_update(ptr noundef %0, i32 noundef %1) #5 {
  %3 = alloca ptr, align 8
  %4 = alloca i32, align 4
  %5 = alloca i32, align 4
  store ptr %0, ptr %3, align 8, !tbaa !60
  store i32 %1, ptr %4, align 4, !tbaa !10
  call void @llvm.lifetime.start.p0(i64 4, ptr %5) #13
  %6 = load ptr, ptr %3, align 8, !tbaa !60
  %7 = getelementptr inbounds nuw %struct.pmix_object_t, ptr %6, i32 0, i32 0
  %8 = call i32 @pthread_mutex_lock(ptr noundef %7) #13
  store i32 %8, ptr %5, align 4, !tbaa !10
  %9 = load i32, ptr %5, align 4, !tbaa !10
  %10 = icmp eq i32 %9, 35
  br i1 %10, label %11, label %14

11:                                               ; preds = %2
  %12 = load i32, ptr %5, align 4, !tbaa !10
  %13 = call ptr @__errno_location() #14
  store i32 %12, ptr %13, align 4, !tbaa !10
  call void @perror(ptr noundef @.str.10)
  call void @abort() #15
  unreachable

14:                                               ; preds = %2
  %15 = load i32, ptr %4, align 4, !tbaa !10
  %16 = load ptr, ptr %3, align 8, !tbaa !60
  %17 = getelementptr inbounds nuw %struct.pmix_object_t, ptr %16, i32 0, i32 2
  %18 = load i32, ptr %17, align 8, !tbaa !55
  %19 = add nsw i32 %18, %15
  store i32 %19, ptr %17, align 8, !tbaa !55
  store i32 %19, ptr %5, align 4, !tbaa !10
  %20 = load ptr, ptr %3, align 8, !tbaa !60
  %21 = getelementptr inbounds nuw %struct.pmix_object_t, ptr %20, i32 0, i32 0
  %22 = call i32 @pthread_mutex_unlock(ptr noundef %21) #13
  %23 = load i32, ptr %5, align 4, !tbaa !10
  call void @llvm.lifetime.end.p0(i64 4, ptr %5) #13
  ret i32 %23
}

; Function Attrs: inlinehint nounwind uwtable
define internal ptr @pmix_list_remove_first(ptr noundef %0) #4 {
  %2 = alloca ptr, align 8
  %3 = alloca ptr, align 8
  %4 = alloca ptr, align 8
  %5 = alloca i32, align 4
  store ptr %0, ptr %3, align 8, !tbaa !79
  call void @llvm.lifetime.start.p0(i64 8, ptr %4) #13
  %6 = load ptr, ptr %3, align 8, !tbaa !79
  %7 = getelementptr inbounds nuw %struct.pmix_list_t, ptr %6, i32 0, i32 2
  %8 = load volatile i64, ptr %7, align 8, !tbaa !81
  %9 = icmp eq i64 0, %8
  br i1 %9, label %10, label %11

10:                                               ; preds = %1
  store ptr null, ptr %2, align 8
  store i32 1, ptr %5, align 4
  br label %34

11:                                               ; preds = %1
  %12 = load ptr, ptr %3, align 8, !tbaa !79
  %13 = getelementptr inbounds nuw %struct.pmix_list_t, ptr %12, i32 0, i32 2
  %14 = load volatile i64, ptr %13, align 8, !tbaa !81
  %15 = add i64 %14, -1
  store volatile i64 %15, ptr %13, align 8, !tbaa !81
  %16 = load ptr, ptr %3, align 8, !tbaa !79
  %17 = getelementptr inbounds nuw %struct.pmix_list_t, ptr %16, i32 0, i32 1
  %18 = getelementptr inbounds nuw %struct.pmix_list_item_t, ptr %17, i32 0, i32 1
  %19 = load ptr, ptr %18, align 8, !tbaa !42
  store ptr %19, ptr %4, align 8, !tbaa !77
  %20 = load ptr, ptr %4, align 8, !tbaa !77
  %21 = getelementptr inbounds nuw %struct.pmix_list_item_t, ptr %20, i32 0, i32 2
  %22 = load volatile ptr, ptr %21, align 8, !tbaa !82
  %23 = load ptr, ptr %4, align 8, !tbaa !77
  %24 = getelementptr inbounds nuw %struct.pmix_list_item_t, ptr %23, i32 0, i32 1
  %25 = load volatile ptr, ptr %24, align 8, !tbaa !45
  %26 = getelementptr inbounds nuw %struct.pmix_list_item_t, ptr %25, i32 0, i32 2
  store volatile ptr %22, ptr %26, align 8, !tbaa !82
  %27 = load ptr, ptr %4, align 8, !tbaa !77
  %28 = getelementptr inbounds nuw %struct.pmix_list_item_t, ptr %27, i32 0, i32 1
  %29 = load volatile ptr, ptr %28, align 8, !tbaa !45
  %30 = load ptr, ptr %3, align 8, !tbaa !79
  %31 = getelementptr inbounds nuw %struct.pmix_list_t, ptr %30, i32 0, i32 1
  %32 = getelementptr inbounds nuw %struct.pmix_list_item_t, ptr %31, i32 0, i32 1
  store ptr %29, ptr %32, align 8, !tbaa !42
  %33 = load ptr, ptr %4, align 8, !tbaa !77
  store ptr %33, ptr %2, align 8
  store i32 1, ptr %5, align 4
  br label %34

34:                                               ; preds = %11, %10
  call void @llvm.lifetime.end.p0(i64 8, ptr %4) #13
  %35 = load ptr, ptr %2, align 8
  ret ptr %35
}

; Function Attrs: nounwind uwtable
define internal void @tuple_list_item_destructor(ptr noundef %0) #0 {
  %2 = alloca ptr, align 8
  %3 = alloca ptr, align 8
  %4 = alloca ptr, align 8
  store ptr %0, ptr %2, align 8, !tbaa !12
  %5 = load ptr, ptr %2, align 8, !tbaa !12
  %6 = getelementptr inbounds nuw %struct.tuple_list_item_t, ptr %5, i32 0, i32 1
  %7 = load ptr, ptr %6, align 8, !tbaa !43
  %8 = icmp ne ptr null, %7
  br i1 %8, label %9, label %13

9:                                                ; preds = %1
  %10 = load ptr, ptr %2, align 8, !tbaa !12
  %11 = getelementptr inbounds nuw %struct.tuple_list_item_t, ptr %10, i32 0, i32 1
  %12 = load ptr, ptr %11, align 8, !tbaa !43
  call void @free(ptr noundef %12) #13
  br label %13

13:                                               ; preds = %9, %1
  %14 = load ptr, ptr %2, align 8, !tbaa !12
  %15 = getelementptr inbounds nuw %struct.tuple_list_item_t, ptr %14, i32 0, i32 2
  %16 = load ptr, ptr %15, align 8, !tbaa !44
  %17 = icmp ne ptr null, %16
  br i1 %17, label %18, label %22

18:                                               ; preds = %13
  %19 = load ptr, ptr %2, align 8, !tbaa !12
  %20 = getelementptr inbounds nuw %struct.tuple_list_item_t, ptr %19, i32 0, i32 2
  %21 = load ptr, ptr %20, align 8, !tbaa !44
  call void @free(ptr noundef %21) #13
  br label %22

22:                                               ; preds = %18, %13
  br label %23

23:                                               ; preds = %22
  call void @llvm.lifetime.start.p0(i64 8, ptr %3) #13
  br label %24

24:                                               ; preds = %51, %23
  %25 = load ptr, ptr %2, align 8, !tbaa !12
  %26 = getelementptr inbounds nuw %struct.tuple_list_item_t, ptr %25, i32 0, i32 3
  %27 = call ptr @pmix_list_remove_first(ptr noundef %26)
  store ptr %27, ptr %3, align 8, !tbaa !77
  %28 = icmp ne ptr null, %27
  br i1 %28, label %29, label %52

29:                                               ; preds = %24
  br label %30

30:                                               ; preds = %29
  call void @llvm.lifetime.start.p0(i64 8, ptr %4) #13
  %31 = load ptr, ptr %3, align 8, !tbaa !77
  store ptr %31, ptr %4, align 8, !tbaa !60
  %32 = load ptr, ptr %4, align 8, !tbaa !60
  %33 = call i32 @pmix_obj_update(ptr noundef %32, i32 noundef -1)
  %34 = icmp eq i32 0, %33
  br i1 %34, label %35, label %49

35:                                               ; preds = %30
  %36 = load ptr, ptr %4, align 8, !tbaa !60
  call void @pmix_obj_run_destructors(ptr noundef %36)
  %37 = load ptr, ptr %4, align 8, !tbaa !60
  %38 = getelementptr inbounds nuw %struct.pmix_object_t, ptr %37, i32 0, i32 3
  %39 = getelementptr inbounds nuw %struct.pmix_tma, ptr %38, i32 0, i32 5
  %40 = load ptr, ptr %39, align 8, !tbaa !69
  %41 = icmp ne ptr null, %40
  br i1 %41, label %42, label %46

42:                                               ; preds = %35
  %43 = load ptr, ptr %4, align 8, !tbaa !60
  %44 = getelementptr inbounds nuw %struct.pmix_object_t, ptr %43, i32 0, i32 3
  %45 = load ptr, ptr %3, align 8, !tbaa !77
  call void @pmix_tma_free(ptr noundef %44, ptr noundef %45)
  br label %48

46:                                               ; preds = %35
  %47 = load ptr, ptr %3, align 8, !tbaa !77
  call void @free(ptr noundef %47) #13
  br label %48

48:                                               ; preds = %46, %42
  store ptr null, ptr %3, align 8, !tbaa !77
  br label %49

49:                                               ; preds = %48, %30
  call void @llvm.lifetime.end.p0(i64 8, ptr %4) #13
  br label %50

50:                                               ; preds = %49
  br label %51

51:                                               ; preds = %50
  br label %24, !llvm.loop !116

52:                                               ; preds = %24
  br label %53

53:                                               ; preds = %52
  %54 = load ptr, ptr %2, align 8, !tbaa !12
  %55 = getelementptr inbounds nuw %struct.tuple_list_item_t, ptr %54, i32 0, i32 3
  call void @pmix_obj_run_destructors(ptr noundef %55)
  br label %56

56:                                               ; preds = %53
  br label %57

57:                                               ; preds = %56
  call void @llvm.lifetime.end.p0(i64 8, ptr %3) #13
  br label %58

58:                                               ; preds = %57
  ret void
}